; Function Attrs: nounwind uwtable
define noundef i32 @yr_arena_write_data(ptr nocapture noundef %0, ptr nocapture noundef readonly %1, i64 noundef %2, ptr noundef writeonly %3) local_unnamed_addr #0 {
  %5 = getelementptr inbounds i8, ptr %0, i64 16
  %6 = load ptr, ptr %5, align 8
  %7 = getelementptr inbounds i8, ptr %6, i64 16
  %8 = load i64, ptr %7, align 8
  %9 = getelementptr inbounds i8, ptr %6, i64 24
  %10 = load i64, ptr %9, align 8
  %11 = sub i64 %8, %10
  %12 = icmp ult i64 %11, %2
  br i1 %12, label %13, label %21

13:                                               ; preds = %4
  %14 = tail call i32 @yr_arena_reserve_memory(ptr noundef nonnull %0, i64 noundef %2), !range !4
  %.not.i = icmp eq i32 %14, 0
  br i1 %.not.i, label %yr_arena_allocate_memory.exit.thread, label %yr_arena_allocate_memory.exit

yr_arena_allocate_memory.exit.thread:             ; preds = %13
  %15 = load ptr, ptr %5, align 8
  %16 = getelementptr inbounds i8, ptr %15, i64 8
  %17 = load ptr, ptr %16, align 8
  %18 = getelementptr inbounds i8, ptr %15, i64 24
  %19 = load i64, ptr %18, align 8
  %20 = getelementptr inbounds i8, ptr %17, i64 %19
  br label %25

21:                                               ; preds = %4
  %22 = getelementptr inbounds i8, ptr %6, i64 8
  %23 = load ptr, ptr %22, align 8
  %24 = getelementptr inbounds i8, ptr %23, i64 %10
  br label %25

25:                                               ; preds = %yr_arena_allocate_memory.exit.thread, %21
  %.sink25 = phi i64 [ %19, %yr_arena_allocate_memory.exit.thread ], [ %10, %21 ]
  %.sink24 = phi ptr [ %18, %yr_arena_allocate_memory.exit.thread ], [ %9, %21 ]
  %.1 = phi ptr [ %20, %yr_arena_allocate_memory.exit.thread ], [ %24, %21 ]
  %26 = add i64 %.sink25, %2
  store i64 %26, ptr %.sink24, align 8
  tail call void @llvm.memcpy.p0.p0.i64(ptr align 1 %.1, ptr align 1 %1, i64 %2, i1 false)
  %.not18 = icmp eq ptr %3, null
  br i1 %.not18, label %yr_arena_allocate_memory.exit, label %27

27:                                               ; preds = %25
  store ptr %.1, ptr %3, align 8
  br label %yr_arena_allocate_memory.exit

yr_arena_allocate_memory.exit:                    ; preds = %13, %25, %27
  %.0 = phi i32 [ 0, %27 ], [ 0, %25 ], [ 1, %13 ]
  ret i32 %.0
}